target datalayout = "e-m:e-p270:32:32-p271:32:32-p272:64:64-i64:64-i128:128-f80:128-n8:16:32:64-S128"
target triple = "x86_64-pc-linux-gnu"

%struct.mi_heap_s = type { ptr, ptr, i64, i32, i64, [2 x i64], %struct.mi_random_cxt_s, i64, i64, i64, ptr, i8, i8, [129 x ptr], [75 x %struct.mi_page_queue_s] }
%struct.mi_random_cxt_s = type { [16 x i32], [16 x i32], i32, i8 }
%struct.mi_page_queue_s = type { ptr, ptr, i64 }
%struct.mi_page_s = type { i32, i32, i8, i16, i16, %union.mi_page_flags_s, i8, ptr, ptr, i16, i8, i8, i64, ptr, i64, i64, ptr, ptr, [1 x ptr] }
%union.mi_page_flags_s = type { i8 }
%struct.mi_tld_s = type { i64, i8, ptr, ptr, %struct.mi_segments_tld_s, %struct.mi_stats_s }
%struct.mi_segments_tld_s = type { [36 x %struct.mi_span_queue_s], i64, i64, i64, i64, i64, ptr, ptr }
%struct.mi_span_queue_s = type { ptr, ptr, i64 }
%struct.mi_stats_s = type { %struct.mi_stat_count_s, %struct.mi_stat_count_s, %struct.mi_stat_count_s, %struct.mi_stat_count_s, %struct.mi_stat_count_s, %struct.mi_stat_count_s, %struct.mi_stat_count_s, %struct.mi_stat_count_s, %struct.mi_stat_count_s, %struct.mi_stat_count_s, %struct.mi_stat_count_s, %struct.mi_stat_count_s, %struct.mi_stat_count_s, %struct.mi_stat_count_s, %struct.mi_stat_count_s, %struct.mi_stat_counter_s, %struct.mi_stat_counter_s, %struct.mi_stat_counter_s, %struct.mi_stat_counter_s, %struct.mi_stat_counter_s, %struct.mi_stat_counter_s, %struct.mi_stat_counter_s, %struct.mi_stat_counter_s, %struct.mi_stat_counter_s, %struct.mi_stat_counter_s, %struct.mi_stat_counter_s, %struct.mi_stat_counter_s, %struct.mi_stat_counter_s, %struct.mi_stat_counter_s }
%struct.mi_stat_count_s = type { i64, i64, i64, i64 }
%struct.mi_stat_counter_s = type { i64, i64 }

; Function Attrs: inlinehint nounwind uwtable
define internal void @mi_page_set_heap(ptr noundef %0, ptr noundef %1) #1 {
  %3 = alloca ptr, align 8
  %4 = alloca ptr, align 8
  %5 = alloca i64, align 8
  store ptr %0, ptr %3, align 8, !tbaa !17
  store ptr %1, ptr %4, align 8, !tbaa !12
  %6 = load ptr, ptr %3, align 8, !tbaa !17
  %7 = getelementptr inbounds nuw %struct.mi_page_s, ptr %6, i32 0, i32 15
  %8 = load ptr, ptr %4, align 8, !tbaa !12
  %9 = ptrtoint ptr %8 to i64
  store i64 %9, ptr %5, align 8, !tbaa !3
  %10 = load i64, ptr %5, align 8
  store atomic i64 %10, ptr %7 release, align 8
  %11 = load ptr, ptr %4, align 8, !tbaa !12
  %12 = icmp ne ptr %11, null
  br i1 %12, label %13, label %19

13:                                               ; preds = %2
  %14 = load ptr, ptr %4, align 8, !tbaa !12
  %15 = getelementptr inbounds nuw %struct.mi_heap_s, ptr %14, i32 0, i32 12
  %16 = load i8, ptr %15, align 1, !tbaa !65
  %17 = load ptr, ptr %3, align 8, !tbaa !17
  %18 = getelementptr inbounds nuw %struct.mi_page_s, ptr %17, i32 0, i32 11
  store i8 %16, ptr %18, align 1, !tbaa !66
  br label %19

19:                                               ; preds = %13, %2
  ret void
}

; Function Attrs: inlinehint nounwind uwtable
define internal ptr @mi_page_heap(ptr noundef %0) #1 {
  %2 = alloca ptr, align 8
  %3 = alloca i64, align 8
  store ptr %0, ptr %2, align 8, !tbaa !17
  %4 = load ptr, ptr %2, align 8, !tbaa !17
  %5 = getelementptr inbounds nuw %struct.mi_page_s, ptr %4, i32 0, i32 15
  %6 = load atomic i64, ptr %5 monotonic, align 8
  store i64 %6, ptr %3, align 8
  %7 = load i64, ptr %3, align 8, !tbaa !3
  %8 = inttoptr i64 %7 to ptr
  ret ptr %8
}

; Function Attrs: inlinehint nounwind uwtable
define internal void @mi_page_set_has_aligned(ptr noundef %0, i1 noundef zeroext %1) #1 {
  %3 = alloca ptr, align 8
  %4 = alloca i8, align 1
  store ptr %0, ptr %3, align 8, !tbaa !17
  %5 = zext i1 %1 to i8
  store i8 %5, ptr %4, align 1, !tbaa !29
  %6 = load i8, ptr %4, align 1, !tbaa !29, !range !31, !noundef !32
  %7 = trunc i8 %6 to i1
  %8 = zext i1 %7 to i8
  %9 = load ptr, ptr %3, align 8, !tbaa !17
  %10 = getelementptr inbounds nuw %struct.mi_page_s, ptr %9, i32 0, i32 5
  %11 = load i8, ptr %10, align 2
  %12 = and i8 %8, 1
  %13 = shl i8 %12, 1
  %14 = and i8 %11, -3
  %15 = or i8 %14, %13
  store i8 %15, ptr %10, align 2
  ret void
}

; Function Attrs: nounwind uwtable
define hidden void @_mi_page_free(ptr noundef %0, ptr noundef %1, i1 noundef zeroext %2) #0 {
  %4 = alloca ptr, align 8
  %5 = alloca ptr, align 8
  %6 = alloca i8, align 1
  %7 = alloca ptr, align 8
  %8 = alloca ptr, align 8
  store ptr %0, ptr %4, align 8, !tbaa !17
  store ptr %1, ptr %5, align 8, !tbaa !14
  %9 = zext i1 %2 to i8
  store i8 %9, ptr %6, align 1, !tbaa !29
  %10 = load ptr, ptr %4, align 8, !tbaa !17
  call void @mi_page_set_has_aligned(ptr noundef %10, i1 noundef zeroext false) #10
  call void @llvm.lifetime.start.p0(i64 8, ptr %7) #6
  %11 = load ptr, ptr %4, align 8, !tbaa !17
  %12 = call ptr @mi_page_heap(ptr noundef %11) #10
  store ptr %12, ptr %7, align 8, !tbaa !12
  call void @llvm.lifetime.start.p0(i64 8, ptr %8) #6
  %13 = load ptr, ptr %7, align 8, !tbaa !12
  %14 = getelementptr inbounds nuw %struct.mi_heap_s, ptr %13, i32 0, i32 0
  %15 = load ptr, ptr %14, align 8, !tbaa !62
  %16 = getelementptr inbounds nuw %struct.mi_tld_s, ptr %15, i32 0, i32 4
  store ptr %16, ptr %8, align 8, !tbaa !63
  %17 = load ptr, ptr %5, align 8, !tbaa !14
  %18 = load ptr, ptr %4, align 8, !tbaa !17
  call void @mi_page_queue_remove(ptr noundef %17, ptr noundef %18) #10
  %19 = load ptr, ptr %4, align 8, !tbaa !17
  call void @mi_page_set_heap(ptr noundef %19, ptr noundef null) #10
  %20 = load ptr, ptr %4, align 8, !tbaa !17
  %21 = load i8, ptr %6, align 1, !tbaa !29, !range !31, !noundef !32
  %22 = trunc i8 %21 to i1
  %23 = load ptr, ptr %8, align 8, !tbaa !63
  call void @_mi_segment_page_free(ptr noundef %20, i1 noundef zeroext %22, ptr noundef %23) #10
  call void @llvm.lifetime.end.p0(i64 8, ptr %8) #6
  call void @llvm.lifetime.end.p0(i64 8, ptr %7) #6
  ret void
}

; Function Attrs: inlinehint nounwind uwtable
define internal zeroext i1 @mi_page_all_free(ptr noundef %0) #1 {
  %2 = alloca ptr, align 8
  store ptr %0, ptr %2, align 8, !tbaa !17
  %3 = load ptr, ptr %2, align 8, !tbaa !17
  %4 = getelementptr inbounds nuw %struct.mi_page_s, ptr %3, i32 0, i32 9
  %5 = load i16, ptr %4, align 8, !tbaa !47
  %6 = zext i16 %5 to i32
  %7 = icmp eq i32 %6, 0
  ret i1 %7
}

; Function Attrs: nounwind uwtable
define hidden void @_mi_heap_collect_retired(ptr noundef %0, i1 noundef zeroext %1) #0 {
  %3 = alloca ptr, align 8
  %4 = alloca i8, align 1
  %5 = alloca i64, align 8
  %6 = alloca i64, align 8
  %7 = alloca i64, align 8
  %8 = alloca ptr, align 8
  %9 = alloca ptr, align 8
  store ptr %0, ptr %3, align 8, !tbaa !12
  %10 = zext i1 %1 to i8
  store i8 %10, ptr %4, align 1, !tbaa !29
  call void @llvm.lifetime.start.p0(i64 8, ptr %5) #6
  store i64 74, ptr %5, align 8, !tbaa !3
  call void @llvm.lifetime.start.p0(i64 8, ptr %6) #6
  store i64 0, ptr %6, align 8, !tbaa !3
  call void @llvm.lifetime.start.p0(i64 8, ptr %7) #6
  %11 = load ptr, ptr %3, align 8, !tbaa !12
  %12 = getelementptr inbounds nuw %struct.mi_heap_s, ptr %11, i32 0, i32 8
  %13 = load i64, ptr %12, align 8, !tbaa !67
  store i64 %13, ptr %7, align 8, !tbaa !3
  br label %14

14:                                               ; preds = %90, %2
  %15 = load i64, ptr %7, align 8, !tbaa !3
  %16 = load ptr, ptr %3, align 8, !tbaa !12
  %17 = getelementptr inbounds nuw %struct.mi_heap_s, ptr %16, i32 0, i32 9
  %18 = load i64, ptr %17, align 8, !tbaa !68
  %19 = icmp ule i64 %15, %18
  br i1 %19, label %21, label %20

20:                                               ; preds = %14
  call void @llvm.lifetime.end.p0(i64 8, ptr %7) #6
  br label %93

21:                                               ; preds = %14
  call void @llvm.lifetime.start.p0(i64 8, ptr %8) #6
  %22 = load ptr, ptr %3, align 8, !tbaa !12
  %23 = getelementptr inbounds nuw %struct.mi_heap_s, ptr %22, i32 0, i32 14
  %24 = load i64, ptr %7, align 8, !tbaa !3
  %25 = getelementptr inbounds nuw [75 x %struct.mi_page_queue_s], ptr %23, i64 0, i64 %24
  store ptr %25, ptr %8, align 8, !tbaa !14
  call void @llvm.lifetime.start.p0(i64 8, ptr %9) #6
  %26 = load ptr, ptr %8, align 8, !tbaa !14
  %27 = getelementptr inbounds nuw %struct.mi_page_queue_s, ptr %26, i32 0, i32 0
  %28 = load ptr, ptr %27, align 8, !tbaa !16
  store ptr %28, ptr %9, align 8, !tbaa !17
  %29 = load ptr, ptr %9, align 8, !tbaa !17
  %30 = icmp ne ptr %29, null
  br i1 %30, label %31, label %89

31:                                               ; preds = %21
  %32 = load ptr, ptr %9, align 8, !tbaa !17
  %33 = getelementptr inbounds nuw %struct.mi_page_s, ptr %32, i32 0, i32 6
  %34 = load i8, ptr %33, align 1
  %35 = lshr i8 %34, 1
  %36 = zext i8 %35 to i32
  %37 = icmp ne i32 %36, 0
  br i1 %37, label %38, label %89

38:                                               ; preds = %31
  %39 = load ptr, ptr %9, align 8, !tbaa !17
  %40 = call zeroext i1 @mi_page_all_free(ptr noundef %39) #10
  br i1 %40, label %41, label %82

41:                                               ; preds = %38
  %42 = load ptr, ptr %9, align 8, !tbaa !17
  %43 = getelementptr inbounds nuw %struct.mi_page_s, ptr %42, i32 0, i32 6
  %44 = load i8, ptr %43, align 1
  %45 = lshr i8 %44, 1
  %46 = add i8 %45, -1
  %47 = load i8, ptr %43, align 1
  %48 = and i8 %46, 127
  %49 = shl i8 %48, 1
  %50 = and i8 %47, 1
  %51 = or i8 %50, %49
  store i8 %51, ptr %43, align 1
  %52 = load i8, ptr %4, align 1, !tbaa !29, !range !31, !noundef !32
  %53 = trunc i8 %52 to i1
  br i1 %53, label %61, label %54

54:                                               ; preds = %41
  %55 = load ptr, ptr %9, align 8, !tbaa !17
  %56 = getelementptr inbounds nuw %struct.mi_page_s, ptr %55, i32 0, i32 6
  %57 = load i8, ptr %56, align 1
  %58 = lshr i8 %57, 1
  %59 = zext i8 %58 to i32
  %60 = icmp eq i32 %59, 0
  br i1 %60, label %61, label %68

61:                                               ; preds = %54, %41
  %62 = load ptr, ptr %8, align 8, !tbaa !14
  %63 = getelementptr inbounds nuw %struct.mi_page_queue_s, ptr %62, i32 0, i32 0
  %64 = load ptr, ptr %63, align 8, !tbaa !16
  %65 = load ptr, ptr %8, align 8, !tbaa !14
  %66 = load i8, ptr %4, align 1, !tbaa !29, !range !31, !noundef !32
  %67 = trunc i8 %66 to i1
  call void @_mi_page_free(ptr noundef %64, ptr noundef %65, i1 noundef zeroext %67) #10
  br label %81

68:                                               ; preds = %54
  %69 = load i64, ptr %7, align 8, !tbaa !3
  %70 = load i64, ptr %5, align 8, !tbaa !3
  %71 = icmp ult i64 %69, %70
  br i1 %71, label %72, label %74

72:                                               ; preds = %68
  %73 = load i64, ptr %7, align 8, !tbaa !3
  store i64 %73, ptr %5, align 8, !tbaa !3
  br label %74

74:                                               ; preds = %72, %68
  %75 = load i64, ptr %7, align 8, !tbaa !3
  %76 = load i64, ptr %6, align 8, !tbaa !3
  %77 = icmp ugt i64 %75, %76
  br i1 %77, label %78, label %80

78:                                               ; preds = %74
  %79 = load i64, ptr %7, align 8, !tbaa !3
  store i64 %79, ptr %6, align 8, !tbaa !3
  br label %80

80:                                               ; preds = %78, %74
  br label %81

81:                                               ; preds = %80, %61
  br label %88

82:                                               ; preds = %38
  %83 = load ptr, ptr %9, align 8, !tbaa !17
  %84 = getelementptr inbounds nuw %struct.mi_page_s, ptr %83, i32 0, i32 6
  %85 = load i8, ptr %84, align 1
  %86 = and i8 %85, 1
  %87 = or i8 %86, 0
  store i8 %87, ptr %84, align 1
  br label %88

88:                                               ; preds = %82, %81
  br label %89

89:                                               ; preds = %88, %31, %21
  call void @llvm.lifetime.end.p0(i64 8, ptr %9) #6
  call void @llvm.lifetime.end.p0(i64 8, ptr %8) #6
  br label %90

90:                                               ; preds = %89
  %91 = load i64, ptr %7, align 8, !tbaa !3
  %92 = add i64 %91, 1
  store i64 %92, ptr %7, align 8, !tbaa !3
  br label %14, !llvm.loop !69

93:                                               ; preds = %20
  %94 = load i64, ptr %5, align 8, !tbaa !3
  %95 = load ptr, ptr %3, align 8, !tbaa !12
  %96 = getelementptr inbounds nuw %struct.mi_heap_s, ptr %95, i32 0, i32 8
  store i64 %94, ptr %96, align 8, !tbaa !67
  %97 = load i64, ptr %6, align 8, !tbaa !3
  %98 = load ptr, ptr %3, align 8, !tbaa !12
  %99 = getelementptr inbounds nuw %struct.mi_heap_s, ptr %98, i32 0, i32 9
  store i64 %97, ptr %99, align 8, !tbaa !68
  call void @llvm.lifetime.end.p0(i64 8, ptr %6) #6
  call void @llvm.lifetime.end.p0(i64 8, ptr %5) #6
  ret void
}