; Function Attrs: nounwind uwtable
define hidden void @_mi_heap_collect_retired(ptr noundef %0, i1 noundef zeroext %1) local_unnamed_addr #1 {
  %3 = getelementptr inbounds nuw i8, ptr %0, i64 200
  %4 = load i64, ptr %3, align 8, !tbaa !51
  %5 = getelementptr inbounds nuw i8, ptr %0, i64 208
  %6 = load i64, ptr %5, align 8, !tbaa !52
  %.not33 = icmp ugt i64 %4, %6
  br i1 %.not33, label %._crit_edge, label %.lr.ph

.lr.ph:                                           ; preds = %2
  %7 = getelementptr inbounds nuw i8, ptr %0, i64 1264
  br i1 %1, label %.lr.ph.split.us, label %.lr.ph.split

.lr.ph.split.us:                                  ; preds = %.lr.ph, %32
  %.02834.us = phi i64 [ %33, %32 ], [ %4, %.lr.ph ]
  %8 = getelementptr inbounds nuw [75 x %struct.mi_page_queue_s], ptr %7, i64 0, i64 %.02834.us
  %9 = load ptr, ptr %8, align 8, !tbaa !10
  %.not30.us = icmp eq ptr %9, null
  br i1 %.not30.us, label %32, label %10

10:                                               ; preds = %.lr.ph.split.us
  %11 = getelementptr inbounds nuw i8, ptr %9, i64 15
  %12 = load i8, ptr %11, align 1
  %.not31.us = icmp ult i8 %12, 2
  br i1 %.not31.us, label %32, label %13

13:                                               ; preds = %10
  %14 = getelementptr i8, ptr %9, i64 32
  %.val.us = load i16, ptr %14, align 8, !tbaa !35
  %15 = icmp eq i16 %.val.us, 0
  br i1 %15, label %18, label %16

16:                                               ; preds = %13
  %17 = and i8 %12, 1
  store i8 %17, ptr %11, align 1
  br label %32

18:                                               ; preds = %13
  %19 = and i8 %12, -2
  %20 = add i8 %19, -2
  %21 = and i8 %12, 1
  %22 = or disjoint i8 %20, %21
  store i8 %22, ptr %11, align 1
  %23 = load ptr, ptr %8, align 8, !tbaa !10
  %24 = getelementptr inbounds nuw i8, ptr %23, i64 14
  %25 = load i8, ptr %24, align 2
  %26 = and i8 %25, -3
  store i8 %26, ptr %24, align 2
  %27 = getelementptr inbounds nuw i8, ptr %23, i64 64
  %28 = load atomic i64, ptr %27 monotonic, align 8
  %29 = inttoptr i64 %28 to ptr
  %30 = load ptr, ptr %29, align 8, !tbaa !49
  %31 = getelementptr inbounds nuw i8, ptr %30, i64 32
  tail call fastcc void @mi_page_queue_remove(ptr noundef nonnull %8, ptr noundef %23) #14
  store atomic i64 0, ptr %27 release, align 8
  tail call void @_mi_segment_page_free(ptr noundef %23, i1 noundef zeroext true, ptr noundef nonnull %31) #13
  br label %32

32:                                               ; preds = %18, %16, %10, %.lr.ph.split.us
  %33 = add i64 %.02834.us, 1
  %34 = load i64, ptr %5, align 8, !tbaa !52
  %.not.us = icmp ugt i64 %33, %34
  br i1 %.not.us, label %._crit_edge, label %.lr.ph.split.us, !llvm.loop !53

._crit_edge:                                      ; preds = %62, %32, %2
  %.026.lcssa = phi i64 [ 0, %2 ], [ 0, %32 ], [ %.127, %62 ]
  %.0.lcssa = phi i64 [ 74, %2 ], [ 74, %32 ], [ %.1, %62 ]
  store i64 %.0.lcssa, ptr %3, align 8, !tbaa !51
  store i64 %.026.lcssa, ptr %5, align 8, !tbaa !52
  ret void

.lr.ph.split:                                     ; preds = %.lr.ph, %62
  %.036 = phi i64 [ %.1, %62 ], [ 74, %.lr.ph ]
  %.02635 = phi i64 [ %.127, %62 ], [ 0, %.lr.ph ]
  %.02834 = phi i64 [ %63, %62 ], [ %4, %.lr.ph ]
  %35 = getelementptr inbounds nuw [75 x %struct.mi_page_queue_s], ptr %7, i64 0, i64 %.02834
  %36 = load ptr, ptr %35, align 8, !tbaa !10
  %.not30 = icmp eq ptr %36, null
  br i1 %.not30, label %62, label %37

37:                                               ; preds = %.lr.ph.split
  %38 = getelementptr inbounds nuw i8, ptr %36, i64 15
  %39 = load i8, ptr %38, align 1
  %.not31 = icmp ult i8 %39, 2
  br i1 %.not31, label %62, label %40

40:                                               ; preds = %37
  %41 = getelementptr i8, ptr %36, i64 32
  %.val = load i16, ptr %41, align 8, !tbaa !35
  %42 = icmp eq i16 %.val, 0
  br i1 %42, label %43, label %60

43:                                               ; preds = %40
  %44 = and i8 %39, -2
  %45 = add i8 %44, -2
  %46 = and i8 %39, 1
  %47 = or disjoint i8 %45, %46
  store i8 %47, ptr %38, align 1
  %48 = icmp eq i8 %45, 0
  br i1 %48, label %49, label %59

49:                                               ; preds = %43
  %50 = load ptr, ptr %35, align 8, !tbaa !10
  %51 = getelementptr inbounds nuw i8, ptr %50, i64 14
  %52 = load i8, ptr %51, align 2
  %53 = and i8 %52, -3
  store i8 %53, ptr %51, align 2
  %54 = getelementptr inbounds nuw i8, ptr %50, i64 64
  %55 = load atomic i64, ptr %54 monotonic, align 8
  %56 = inttoptr i64 %55 to ptr
  %57 = load ptr, ptr %56, align 8, !tbaa !49
  %58 = getelementptr inbounds nuw i8, ptr %57, i64 32
  tail call fastcc void @mi_page_queue_remove(ptr noundef nonnull %35, ptr noundef %50) #14
  store atomic i64 0, ptr %54 release, align 8
  tail call void @_mi_segment_page_free(ptr noundef %50, i1 noundef zeroext false, ptr noundef nonnull %58) #13
  br label %62

59:                                               ; preds = %43
  %spec.select = tail call i64 @llvm.umin.i64(i64 %.02834, i64 %.036)
  %spec.select32 = tail call i64 @llvm.umax.i64(i64 %.02834, i64 %.02635)
  br label %62

60:                                               ; preds = %40
  %61 = and i8 %39, 1
  store i8 %61, ptr %38, align 1
  br label %62

62:                                               ; preds = %59, %60, %49, %37, %.lr.ph.split
  %.127 = phi i64 [ %.02635, %49 ], [ %.02635, %60 ], [ %.02635, %37 ], [ %.02635, %.lr.ph.split ], [ %spec.select32, %59 ]
  %.1 = phi i64 [ %.036, %49 ], [ %.036, %60 ], [ %.036, %37 ], [ %.036, %.lr.ph.split ], [ %spec.select, %59 ]
  %63 = add i64 %.02834, 1
  %64 = load i64, ptr %5, align 8, !tbaa !52
  %.not = icmp ugt i64 %63, %64
  br i1 %.not, label %._crit_edge, label %.lr.ph.split, !llvm.loop !53
}